target datalayout = "e-m:e-p270:32:32-p271:32:32-p272:64:64-i64:64-i128:128-f80:128-n8:16:32:64-S128"
target triple = "x86_64-pc-linux-gnu"

%struct.GtkApi = type { i32, ptr, ptr, ptr, ptr, ptr, ptr, ptr, ptr, ptr, ptr, ptr, ptr, ptr, ptr, ptr, ptr, ptr, ptr, ptr, ptr, ptr, ptr, ptr, ptr, ptr, ptr, ptr, ptr, ptr, ptr, ptr, ptr, ptr, ptr, ptr, ptr, ptr, ptr, ptr, ptr, ptr, ptr, ptr, ptr, ptr, ptr, ptr, ptr, ptr, ptr, ptr, ptr, ptr, ptr, ptr, ptr, ptr, ptr, ptr, ptr, ptr, ptr, ptr, ptr, ptr, ptr, ptr, ptr, ptr, ptr, ptr, ptr, ptr, ptr, ptr, ptr, ptr, ptr, ptr, ptr, ptr, ptr, ptr, ptr, ptr, ptr, ptr, ptr, ptr, ptr, ptr, ptr, ptr, ptr, ptr, ptr, ptr, ptr, ptr, ptr, ptr, ptr, ptr, ptr }
%struct.DBusCallbackHelper = type { i32, ptr, i32 }

@gtk = external global ptr, align 8
@.str.2 = private unnamed_addr constant [10 x i8] c"(u@a{sv})\00", align 1
@.str.72 = private unnamed_addr constant [33 x i8] c"%s:%i Failed select sources: %u\0A\00", align 1
@__func__.callbackScreenCastSelectSources = private unnamed_addr constant [32 x i8] c"callbackScreenCastSelectSources\00", align 1

; Function Attrs: nounwind uwtable
define internal void @callbackScreenCastSelectSources(ptr noundef %0, ptr noundef %1, ptr noundef %2, ptr noundef %3, ptr noundef %4, ptr noundef %5, ptr noundef %6) #0 {
  %8 = alloca ptr, align 8
  %9 = alloca ptr, align 8
  %10 = alloca ptr, align 8
  %11 = alloca ptr, align 8
  %12 = alloca ptr, align 8
  %13 = alloca ptr, align 8
  %14 = alloca ptr, align 8
  %15 = alloca ptr, align 8
  %16 = alloca i32, align 4
  %17 = alloca ptr, align 8
  store ptr %0, ptr %8, align 8
  store ptr %1, ptr %9, align 8
  store ptr %2, ptr %10, align 8
  store ptr %3, ptr %11, align 8
  store ptr %4, ptr %12, align 8
  store ptr %5, ptr %13, align 8
  store ptr %6, ptr %14, align 8
  %18 = load ptr, ptr %14, align 8
  store ptr %18, ptr %15, align 8
  %19 = load ptr, ptr %15, align 8
  %20 = getelementptr inbounds %struct.DBusCallbackHelper, ptr %19, i32 0, i32 1
  store ptr null, ptr %20, align 8
  store ptr null, ptr %17, align 8
  %21 = load ptr, ptr @gtk, align 8
  %22 = getelementptr inbounds %struct.GtkApi, ptr %21, i32 0, i32 72
  %23 = load ptr, ptr %22, align 8
  %24 = load ptr, ptr %13, align 8
  call void (ptr, ptr, ...) %23(ptr noundef %24, ptr noundef @.str.2, ptr noundef %16, ptr noundef %17)
  %25 = load i32, ptr %16, align 4
  %26 = icmp ne i32 %25, 0
  br i1 %26, label %27, label %29

27:                                               ; preds = %7
  %28 = load i32, ptr %16, align 4
  call void (ptr, ...) @debug_screencast(ptr noundef @.str.72, ptr noundef @__func__.callbackScreenCastSelectSources, i32 noundef 465, i32 noundef %28)
  br label %32

29:                                               ; preds = %7
  %30 = load ptr, ptr %15, align 8
  %31 = getelementptr inbounds %struct.DBusCallbackHelper, ptr %30, i32 0, i32 1
  store ptr inttoptr (i64 1 to ptr), ptr %31, align 8
  br label %32

32:                                               ; preds = %29, %27
  %33 = load ptr, ptr %15, align 8
  %34 = getelementptr inbounds %struct.DBusCallbackHelper, ptr %33, i32 0, i32 2
  store i32 1, ptr %34, align 8
  %35 = load ptr, ptr %17, align 8
  %36 = icmp ne ptr %35, null
  br i1 %36, label %37, label %42

37:                                               ; preds = %32
  %38 = load ptr, ptr @gtk, align 8
  %39 = getelementptr inbounds %struct.GtkApi, ptr %38, i32 0, i32 77
  %40 = load ptr, ptr %39, align 8
  %41 = load ptr, ptr %17, align 8
  call void %40(ptr noundef %41)
  br label %42

42:                                               ; preds = %37, %32
  ret void
}