; Function Attrs: nounwind uwtable
define internal void @callbackScreenCastSelectSources(ptr nocapture readnone %0, ptr nocapture readnone %1, ptr nocapture readnone %2, ptr nocapture readnone %3, ptr nocapture readnone %4, ptr noundef %5, ptr nocapture noundef writeonly %6) #0 {
  %8 = alloca i32, align 4
  %9 = alloca ptr, align 8
  %10 = getelementptr inbounds i8, ptr %6, i64 8
  store ptr null, ptr %10, align 8
  store ptr null, ptr %9, align 8
  %11 = load ptr, ptr @gtk, align 8
  %12 = getelementptr inbounds i8, ptr %11, i64 576
  %13 = load ptr, ptr %12, align 8
  call void (ptr, ptr, ...) %13(ptr noundef %5, ptr noundef nonnull @.str.2, ptr noundef nonnull %8, ptr noundef nonnull %9) #9
  %14 = load i32, ptr %8, align 4
  %.not = icmp eq i32 %14, 0
  br i1 %.not, label %16, label %15

15:                                               ; preds = %7
  call void (ptr, ...) @debug_screencast(ptr noundef nonnull @.str.72, ptr noundef nonnull @__func__.callbackScreenCastSelectSources, i32 noundef 465, i32 noundef %14) #9
  br label %17

16:                                               ; preds = %7
  store ptr inttoptr (i64 1 to ptr), ptr %10, align 8
  br label %17

17:                                               ; preds = %16, %15
  %18 = getelementptr inbounds i8, ptr %6, i64 16
  store i32 1, ptr %18, align 8
  %19 = load ptr, ptr %9, align 8
  %.not6 = icmp eq ptr %19, null
  br i1 %.not6, label %24, label %20

20:                                               ; preds = %17
  %21 = load ptr, ptr @gtk, align 8
  %22 = getelementptr inbounds i8, ptr %21, i64 616
  %23 = load ptr, ptr %22, align 8
  call void %23(ptr noundef nonnull %19) #9
  br label %24

24:                                               ; preds = %20, %17
  ret void
}